target datalayout = "e-m:e-p270:32:32-p271:32:32-p272:64:64-i64:64-i128:128-f80:128-n8:16:32:64-S128"
target triple = "x86_64-pc-linux-gnu"

%struct.SDL_Renderer = type { ptr, ptr, ptr, ptr, ptr, ptr, ptr, ptr, ptr, ptr, ptr, ptr, ptr, ptr, ptr, ptr, ptr, ptr, ptr, ptr, ptr, ptr, ptr, ptr, ptr, ptr, ptr, ptr, ptr, ptr, i32, i8, ptr, i8, i8, i8, i64, i64, ptr, %struct.SDL_RenderViewState, %struct.SDL_FPoint, i32, i32, ptr, ptr, ptr, i32, float, float, float, float, %struct.SDL_FColor, i32, i32, i32, ptr, ptr, ptr, ptr, i32, %struct.SDL_FColor, float, %struct.SDL_Rect, %struct.SDL_Rect, i8, i8, i8, i8, ptr, i64, i64, i8, ptr, ptr, i32, ptr, i8, ptr, ptr }
%struct.SDL_RenderViewState = type { i32, i32, %struct.SDL_Rect, %struct.SDL_Rect, %struct.SDL_Rect, %struct.SDL_Rect, i8, %struct.SDL_FPoint, i32, i32, i32, %struct.SDL_FRect, %struct.SDL_FRect, %struct.SDL_FPoint, %struct.SDL_FPoint, %struct.SDL_FPoint }
%struct.SDL_FRect = type { float, float, float, float }
%struct.SDL_FPoint = type { float, float }
%struct.SDL_FColor = type { float, float, float, float }
%struct.SDL_Rect = type { i32, i32, i32, i32 }

@.str.2 = private unnamed_addr constant [26 x i8] c"Parameter '%s' is invalid\00", align 1
@.str.5 = private unnamed_addr constant [9 x i8] c"renderer\00", align 1
@.str.29 = private unnamed_addr constant [56 x i8] c"Renderer's window has been destroyed, can't use further\00", align 1

; Function Attrs: nounwind uwtable
define internal void @GetRenderViewportSize(ptr noundef %0, ptr noundef %1) #0 {
  %3 = alloca ptr, align 8
  %4 = alloca ptr, align 8
  %5 = alloca ptr, align 8
  %6 = alloca float, align 4
  %7 = alloca float, align 4
  store ptr %0, ptr %3, align 8
  store ptr %1, ptr %4, align 8
  call void @llvm.lifetime.start.p0(i64 8, ptr %5) #10
  %8 = load ptr, ptr %3, align 8
  %9 = getelementptr inbounds nuw %struct.SDL_Renderer, ptr %8, i32 0, i32 38
  %10 = load ptr, ptr %9, align 8
  store ptr %10, ptr %5, align 8
  call void @llvm.lifetime.start.p0(i64 4, ptr %6) #10
  %11 = load ptr, ptr %5, align 8
  %12 = getelementptr inbounds nuw %struct.SDL_RenderViewState, ptr %11, i32 0, i32 15
  %13 = getelementptr inbounds nuw %struct.SDL_FPoint, ptr %12, i32 0, i32 0
  %14 = load float, ptr %13, align 4
  store float %14, ptr %6, align 4
  call void @llvm.lifetime.start.p0(i64 4, ptr %7) #10
  %15 = load ptr, ptr %5, align 8
  %16 = getelementptr inbounds nuw %struct.SDL_RenderViewState, ptr %15, i32 0, i32 15
  %17 = getelementptr inbounds nuw %struct.SDL_FPoint, ptr %16, i32 0, i32 1
  %18 = load float, ptr %17, align 4
  store float %18, ptr %7, align 4
  %19 = load ptr, ptr %4, align 8
  %20 = getelementptr inbounds nuw %struct.SDL_FRect, ptr %19, i32 0, i32 0
  store float 0.000000e+00, ptr %20, align 4
  %21 = load ptr, ptr %4, align 8
  %22 = getelementptr inbounds nuw %struct.SDL_FRect, ptr %21, i32 0, i32 1
  store float 0.000000e+00, ptr %22, align 4
  %23 = load ptr, ptr %5, align 8
  %24 = getelementptr inbounds nuw %struct.SDL_RenderViewState, ptr %23, i32 0, i32 2
  %25 = getelementptr inbounds nuw %struct.SDL_Rect, ptr %24, i32 0, i32 2
  %26 = load i32, ptr %25, align 4
  %27 = icmp sge i32 %26, 0
  br i1 %27, label %28, label %36

28:                                               ; preds = %2
  %29 = load ptr, ptr %5, align 8
  %30 = getelementptr inbounds nuw %struct.SDL_RenderViewState, ptr %29, i32 0, i32 2
  %31 = getelementptr inbounds nuw %struct.SDL_Rect, ptr %30, i32 0, i32 2
  %32 = load i32, ptr %31, align 4
  %33 = sitofp i32 %32 to float
  %34 = load ptr, ptr %4, align 8
  %35 = getelementptr inbounds nuw %struct.SDL_FRect, ptr %34, i32 0, i32 2
  store float %33, ptr %35, align 4
  br label %45

36:                                               ; preds = %2
  %37 = load ptr, ptr %5, align 8
  %38 = getelementptr inbounds nuw %struct.SDL_RenderViewState, ptr %37, i32 0, i32 0
  %39 = load i32, ptr %38, align 4
  %40 = sitofp i32 %39 to float
  %41 = load float, ptr %6, align 4
  %42 = fdiv float %40, %41
  %43 = load ptr, ptr %4, align 8
  %44 = getelementptr inbounds nuw %struct.SDL_FRect, ptr %43, i32 0, i32 2
  store float %42, ptr %44, align 4
  br label %45

45:                                               ; preds = %36, %28
  %46 = load ptr, ptr %5, align 8
  %47 = getelementptr inbounds nuw %struct.SDL_RenderViewState, ptr %46, i32 0, i32 2
  %48 = getelementptr inbounds nuw %struct.SDL_Rect, ptr %47, i32 0, i32 3
  %49 = load i32, ptr %48, align 4
  %50 = icmp sge i32 %49, 0
  br i1 %50, label %51, label %59

51:                                               ; preds = %45
  %52 = load ptr, ptr %5, align 8
  %53 = getelementptr inbounds nuw %struct.SDL_RenderViewState, ptr %52, i32 0, i32 2
  %54 = getelementptr inbounds nuw %struct.SDL_Rect, ptr %53, i32 0, i32 3
  %55 = load i32, ptr %54, align 4
  %56 = sitofp i32 %55 to float
  %57 = load ptr, ptr %4, align 8
  %58 = getelementptr inbounds nuw %struct.SDL_FRect, ptr %57, i32 0, i32 3
  store float %56, ptr %58, align 4
  br label %68

59:                                               ; preds = %45
  %60 = load ptr, ptr %5, align 8
  %61 = getelementptr inbounds nuw %struct.SDL_RenderViewState, ptr %60, i32 0, i32 1
  %62 = load i32, ptr %61, align 4
  %63 = sitofp i32 %62 to float
  %64 = load float, ptr %7, align 4
  %65 = fdiv float %63, %64
  %66 = load ptr, ptr %4, align 8
  %67 = getelementptr inbounds nuw %struct.SDL_FRect, ptr %66, i32 0, i32 3
  store float %65, ptr %67, align 4
  br label %68

68:                                               ; preds = %59, %51
  call void @llvm.lifetime.end.p0(i64 4, ptr %7) #10
  call void @llvm.lifetime.end.p0(i64 4, ptr %6) #10
  call void @llvm.lifetime.end.p0(i64 8, ptr %5) #10
  ret void
}

; Function Attrs: nounwind uwtable
define hidden zeroext i1 @SDL_RenderRect_REAL(ptr noundef %0, ptr noundef %1) #0 {
  %3 = alloca i1, align 1
  %4 = alloca ptr, align 8
  %5 = alloca ptr, align 8
  %6 = alloca %struct.SDL_FRect, align 4
  %7 = alloca [5 x %struct.SDL_FPoint], align 16
  %8 = alloca i32, align 4
  store ptr %0, ptr %4, align 8
  store ptr %1, ptr %5, align 8
  call void @llvm.lifetime.start.p0(i64 16, ptr %6) #10
  call void @llvm.lifetime.start.p0(i64 40, ptr %7) #10
  %9 = load ptr, ptr %4, align 8
  %10 = call zeroext i1 @SDL_ObjectValid(ptr noundef %9, i32 noundef 2)
  br i1 %10, label %13, label %11

11:                                               ; preds = %2
  %12 = call zeroext i1 (ptr, ...) @SDL_SetError_REAL(ptr noundef @.str.2, ptr noundef @.str.5)
  store i1 false, ptr %3, align 1
  store i32 1, ptr %8, align 4
  br label %99

13:                                               ; preds = %2
  %14 = load ptr, ptr %4, align 8
  %15 = getelementptr inbounds nuw %struct.SDL_Renderer, ptr %14, i32 0, i32 76
  %16 = load i8, ptr %15, align 8, !range !5, !noundef !6
  %17 = trunc i8 %16 to i1
  br i1 %17, label %18, label %20

18:                                               ; preds = %13
  %19 = call zeroext i1 (ptr, ...) @SDL_SetError_REAL(ptr noundef @.str.29)
  store i1 false, ptr %3, align 1
  store i32 1, ptr %8, align 4
  br label %99

20:                                               ; preds = %13
  %21 = load ptr, ptr %5, align 8
  %22 = icmp ne ptr %21, null
  br i1 %22, label %25, label %23

23:                                               ; preds = %20
  %24 = load ptr, ptr %4, align 8
  call void @GetRenderViewportSize(ptr noundef %24, ptr noundef %6)
  store ptr %6, ptr %5, align 8
  br label %25

25:                                               ; preds = %23, %20
  %26 = load ptr, ptr %5, align 8
  %27 = getelementptr inbounds nuw %struct.SDL_FRect, ptr %26, i32 0, i32 0
  %28 = load float, ptr %27, align 4
  %29 = getelementptr inbounds [5 x %struct.SDL_FPoint], ptr %7, i64 0, i64 0
  %30 = getelementptr inbounds nuw %struct.SDL_FPoint, ptr %29, i32 0, i32 0
  store float %28, ptr %30, align 16
  %31 = load ptr, ptr %5, align 8
  %32 = getelementptr inbounds nuw %struct.SDL_FRect, ptr %31, i32 0, i32 1
  %33 = load float, ptr %32, align 4
  %34 = getelementptr inbounds [5 x %struct.SDL_FPoint], ptr %7, i64 0, i64 0
  %35 = getelementptr inbounds nuw %struct.SDL_FPoint, ptr %34, i32 0, i32 1
  store float %33, ptr %35, align 4
  %36 = load ptr, ptr %5, align 8
  %37 = getelementptr inbounds nuw %struct.SDL_FRect, ptr %36, i32 0, i32 0
  %38 = load float, ptr %37, align 4
  %39 = load ptr, ptr %5, align 8
  %40 = getelementptr inbounds nuw %struct.SDL_FRect, ptr %39, i32 0, i32 2
  %41 = load float, ptr %40, align 4
  %42 = fadd float %38, %41
  %43 = fsub float %42, 1.000000e+00
  %44 = getelementptr inbounds [5 x %struct.SDL_FPoint], ptr %7, i64 0, i64 1
  %45 = getelementptr inbounds nuw %struct.SDL_FPoint, ptr %44, i32 0, i32 0
  store float %43, ptr %45, align 8
  %46 = load ptr, ptr %5, align 8
  %47 = getelementptr inbounds nuw %struct.SDL_FRect, ptr %46, i32 0, i32 1
  %48 = load float, ptr %47, align 4
  %49 = getelementptr inbounds [5 x %struct.SDL_FPoint], ptr %7, i64 0, i64 1
  %50 = getelementptr inbounds nuw %struct.SDL_FPoint, ptr %49, i32 0, i32 1
  store float %48, ptr %50, align 4
  %51 = load ptr, ptr %5, align 8
  %52 = getelementptr inbounds nuw %struct.SDL_FRect, ptr %51, i32 0, i32 0
  %53 = load float, ptr %52, align 4
  %54 = load ptr, ptr %5, align 8
  %55 = getelementptr inbounds nuw %struct.SDL_FRect, ptr %54, i32 0, i32 2
  %56 = load float, ptr %55, align 4
  %57 = fadd float %53, %56
  %58 = fsub float %57, 1.000000e+00
  %59 = getelementptr inbounds [5 x %struct.SDL_FPoint], ptr %7, i64 0, i64 2
  %60 = getelementptr inbounds nuw %struct.SDL_FPoint, ptr %59, i32 0, i32 0
  store float %58, ptr %60, align 16
  %61 = load ptr, ptr %5, align 8
  %62 = getelementptr inbounds nuw %struct.SDL_FRect, ptr %61, i32 0, i32 1
  %63 = load float, ptr %62, align 4
  %64 = load ptr, ptr %5, align 8
  %65 = getelementptr inbounds nuw %struct.SDL_FRect, ptr %64, i32 0, i32 3
  %66 = load float, ptr %65, align 4
  %67 = fadd float %63, %66
  %68 = fsub float %67, 1.000000e+00
  %69 = getelementptr inbounds [5 x %struct.SDL_FPoint], ptr %7, i64 0, i64 2
  %70 = getelementptr inbounds nuw %struct.SDL_FPoint, ptr %69, i32 0, i32 1
  store float %68, ptr %70, align 4
  %71 = load ptr, ptr %5, align 8
  %72 = getelementptr inbounds nuw %struct.SDL_FRect, ptr %71, i32 0, i32 0
  %73 = load float, ptr %72, align 4
  %74 = getelementptr inbounds [5 x %struct.SDL_FPoint], ptr %7, i64 0, i64 3
  %75 = getelementptr inbounds nuw %struct.SDL_FPoint, ptr %74, i32 0, i32 0
  store float %73, ptr %75, align 8
  %76 = load ptr, ptr %5, align 8
  %77 = getelementptr inbounds nuw %struct.SDL_FRect, ptr %76, i32 0, i32 1
  %78 = load float, ptr %77, align 4
  %79 = load ptr, ptr %5, align 8
  %80 = getelementptr inbounds nuw %struct.SDL_FRect, ptr %79, i32 0, i32 3
  %81 = load float, ptr %80, align 4
  %82 = fadd float %78, %81
  %83 = fsub float %82, 1.000000e+00
  %84 = getelementptr inbounds [5 x %struct.SDL_FPoint], ptr %7, i64 0, i64 3
  %85 = getelementptr inbounds nuw %struct.SDL_FPoint, ptr %84, i32 0, i32 1
  store float %83, ptr %85, align 4
  %86 = load ptr, ptr %5, align 8
  %87 = getelementptr inbounds nuw %struct.SDL_FRect, ptr %86, i32 0, i32 0
  %88 = load float, ptr %87, align 4
  %89 = getelementptr inbounds [5 x %struct.SDL_FPoint], ptr %7, i64 0, i64 4
  %90 = getelementptr inbounds nuw %struct.SDL_FPoint, ptr %89, i32 0, i32 0
  store float %88, ptr %90, align 16
  %91 = load ptr, ptr %5, align 8
  %92 = getelementptr inbounds nuw %struct.SDL_FRect, ptr %91, i32 0, i32 1
  %93 = load float, ptr %92, align 4
  %94 = getelementptr inbounds [5 x %struct.SDL_FPoint], ptr %7, i64 0, i64 4
  %95 = getelementptr inbounds nuw %struct.SDL_FPoint, ptr %94, i32 0, i32 1
  store float %93, ptr %95, align 4
  %96 = load ptr, ptr %4, align 8
  %97 = getelementptr inbounds [5 x %struct.SDL_FPoint], ptr %7, i64 0, i64 0
  %98 = call zeroext i1 @SDL_RenderLines_REAL(ptr noundef %96, ptr noundef %97, i32 noundef 5)
  store i1 %98, ptr %3, align 1
  store i32 1, ptr %8, align 4
  br label %99

99:                                               ; preds = %25, %18, %11
  call void @llvm.lifetime.end.p0(i64 40, ptr %7) #10
  call void @llvm.lifetime.end.p0(i64 16, ptr %6) #10
  %100 = load i1, ptr %3, align 1
  ret i1 %100
}