; Function Attrs: nounwind uwtable
define hidden zeroext i1 @SDL_RenderRect_REAL(ptr noundef %0, ptr noundef readonly captures(address_is_null) %1) local_unnamed_addr #0 {
  %3 = alloca [5 x %struct.SDL_FPoint], align 16
  call void @llvm.lifetime.start.p0(i64 40, ptr nonnull %3) #15
  %4 = tail call zeroext i1 @SDL_ObjectValid(ptr noundef %0, i32 noundef 2) #15
  %.0.sroa.gep23 = getelementptr inbounds nuw i8, ptr %1, i64 4
  %.0.sroa.gep29 = getelementptr inbounds nuw i8, ptr %1, i64 8
  %.0.sroa.gep44 = getelementptr inbounds nuw i8, ptr %1, i64 12
  br i1 %4, label %7, label %5

5:                                                ; preds = %2
  %6 = tail call zeroext i1 (ptr, ...) @SDL_SetError_REAL(ptr noundef nonnull @.str.2, ptr noundef nonnull @.str.5) #15
  br label %58

7:                                                ; preds = %2
  %8 = getelementptr inbounds nuw i8, ptr %0, i64 688
  %9 = load i8, ptr %8, align 8, !range !3, !noundef !4
  %10 = trunc nuw i8 %9 to i1
  br i1 %10, label %11, label %13

11:                                               ; preds = %7
  %12 = tail call zeroext i1 (ptr, ...) @SDL_SetError_REAL(ptr noundef nonnull @.str.29) #15
  br label %58

13:                                               ; preds = %7
  %.not = icmp eq ptr %1, null
  br i1 %.not, label %14, label %._crit_edge

._crit_edge:                                      ; preds = %13
  %.pre = load float, ptr %1, align 4
  %.pre61 = load float, ptr %.0.sroa.gep23, align 4
  %.pre62 = load float, ptr %.0.sroa.gep29, align 4
  %.pre63 = load float, ptr %.0.sroa.gep44, align 4
  br label %GetRenderViewportSize.exit

14:                                               ; preds = %13
  %15 = getelementptr i8, ptr %0, i64 280
  %.val = load ptr, ptr %15, align 8
  %16 = getelementptr inbounds nuw i8, ptr %.val, i64 148
  %17 = load float, ptr %16, align 4
  %18 = getelementptr inbounds nuw i8, ptr %.val, i64 16
  %19 = load i32, ptr %18, align 4
  %20 = icmp sgt i32 %19, -1
  br i1 %20, label %21, label %23

21:                                               ; preds = %14
  %22 = uitofp nneg i32 %19 to float
  br label %29

23:                                               ; preds = %14
  %24 = getelementptr inbounds nuw i8, ptr %.val, i64 144
  %25 = load float, ptr %24, align 4
  %26 = load i32, ptr %.val, align 4
  %27 = sitofp i32 %26 to float
  %28 = fdiv float %27, %25
  br label %29

29:                                               ; preds = %23, %21
  %.sink.i = phi float [ %22, %21 ], [ %28, %23 ]
  %30 = getelementptr inbounds nuw i8, ptr %.val, i64 20
  %31 = load i32, ptr %30, align 4
  %32 = icmp sgt i32 %31, -1
  br i1 %32, label %33, label %35

33:                                               ; preds = %29
  %34 = uitofp nneg i32 %31 to float
  br label %GetRenderViewportSize.exit

35:                                               ; preds = %29
  %36 = getelementptr inbounds nuw i8, ptr %.val, i64 4
  %37 = load i32, ptr %36, align 4
  %38 = sitofp i32 %37 to float
  %39 = fdiv float %38, %17
  br label %GetRenderViewportSize.exit

GetRenderViewportSize.exit:                       ; preds = %35, %33, %._crit_edge
  %40 = phi float [ %.pre63, %._crit_edge ], [ %34, %33 ], [ %39, %35 ]
  %41 = phi float [ %.pre62, %._crit_edge ], [ %.sink.i, %33 ], [ %.sink.i, %35 ]
  %42 = phi float [ %.pre61, %._crit_edge ], [ 0.000000e+00, %33 ], [ 0.000000e+00, %35 ]
  %43 = phi float [ %.pre, %._crit_edge ], [ 0.000000e+00, %33 ], [ 0.000000e+00, %35 ]
  store float %43, ptr %3, align 16
  %44 = getelementptr inbounds nuw i8, ptr %3, i64 4
  store float %42, ptr %44, align 4
  %45 = fadd float %43, %41
  %46 = fadd float %45, -1.000000e+00
  %47 = getelementptr inbounds nuw i8, ptr %3, i64 8
  store float %46, ptr %47, align 8
  %48 = getelementptr inbounds nuw i8, ptr %3, i64 12
  store float %42, ptr %48, align 4
  %49 = getelementptr inbounds nuw i8, ptr %3, i64 16
  store float %46, ptr %49, align 16
  %50 = fadd float %42, %40
  %51 = fadd float %50, -1.000000e+00
  %52 = getelementptr inbounds nuw i8, ptr %3, i64 20
  store float %51, ptr %52, align 4
  %53 = getelementptr inbounds nuw i8, ptr %3, i64 24
  store float %43, ptr %53, align 8
  %54 = getelementptr inbounds nuw i8, ptr %3, i64 28
  store float %51, ptr %54, align 4
  %55 = getelementptr inbounds nuw i8, ptr %3, i64 32
  store float %43, ptr %55, align 16
  %56 = getelementptr inbounds nuw i8, ptr %3, i64 36
  store float %42, ptr %56, align 4
  %57 = call zeroext i1 @SDL_RenderLines_REAL(ptr noundef nonnull %0, ptr noundef nonnull %3, i32 noundef 5)
  br label %58

58:                                               ; preds = %GetRenderViewportSize.exit, %11, %5
  %.020 = phi i1 [ false, %11 ], [ %57, %GetRenderViewportSize.exit ], [ false, %5 ]
  call void @llvm.lifetime.end.p0(i64 40, ptr nonnull %3) #15
  ret i1 %.020
}